target datalayout = "e-m:e-p270:32:32-p271:32:32-p272:64:64-i64:64-i128:128-f80:128-n8:16:32:64-S128"
target triple = "x86_64-pc-linux-gnu"

%struct.KINMemRec = type { double, ptr, ptr, double, double, i32, i32, i64, i64, i64, i64, i32, i32, i32, i32, i32, i32, i32, i32, i32, double, double, double, double, double, double, double, double, double, i32, double, i64, i64, i64, i64, i64, i64, i64, ptr, ptr, ptr, ptr, ptr, ptr, ptr, ptr, ptr, ptr, ptr, ptr, ptr, ptr, ptr, ptr, ptr, ptr, i64, i32, i32, i64, i64, i64, i64, ptr, ptr, ptr, ptr, i32, ptr, double, double, double, double, double, i32, double, double, double, i32, ptr, ptr, ptr, ptr, ptr, ptr }

@.str = private unnamed_addr constant [7 x i8] c"KINSOL\00", align 1
@.str.2 = private unnamed_addr constant [27 x i8] c"kinsol_mem = NULL illegal.\00", align 1
@.str.40 = private unnamed_addr constant [18 x i8] c"KINSetConstraints\00", align 1
@.str.41 = private unnamed_addr constant [38 x i8] c"Illegal values in constraints vector.\00", align 1

; Function Attrs: nounwind uwtable
define i32 @KINSetConstraints(ptr noundef %0, ptr noundef %1) #0 {
  %3 = alloca i32, align 4
  %4 = alloca ptr, align 8
  %5 = alloca ptr, align 8
  %6 = alloca ptr, align 8
  %7 = alloca double, align 8
  store ptr %0, ptr %4, align 8
  store ptr %1, ptr %5, align 8
  %8 = load ptr, ptr %4, align 8
  %9 = icmp eq ptr %8, null
  br i1 %9, label %10, label %11

10:                                               ; preds = %2
  call void (ptr, i32, ptr, ptr, ptr, ...) @KINProcessError(ptr noundef null, i32 noundef -1, ptr noundef @.str, ptr noundef @.str.40, ptr noundef @.str.2)
  store i32 -1, ptr %3, align 4
  br label %78

11:                                               ; preds = %2
  %12 = load ptr, ptr %4, align 8
  store ptr %12, ptr %6, align 8
  %13 = load ptr, ptr %5, align 8
  %14 = icmp eq ptr %13, null
  br i1 %14, label %15, label %41

15:                                               ; preds = %11
  %16 = load ptr, ptr %6, align 8
  %17 = getelementptr inbounds %struct.KINMemRec, ptr %16, i32 0, i32 14
  %18 = load i32, ptr %17, align 4
  %19 = icmp ne i32 %18, 0
  br i1 %19, label %20, label %38

20:                                               ; preds = %15
  %21 = load ptr, ptr %6, align 8
  %22 = getelementptr inbounds %struct.KINMemRec, ptr %21, i32 0, i32 45
  %23 = load ptr, ptr %22, align 8
  call void @N_VDestroy(ptr noundef %23)
  %24 = load ptr, ptr %6, align 8
  %25 = getelementptr inbounds %struct.KINMemRec, ptr %24, i32 0, i32 59
  %26 = load i64, ptr %25, align 8
  %27 = load ptr, ptr %6, align 8
  %28 = getelementptr inbounds %struct.KINMemRec, ptr %27, i32 0, i32 61
  %29 = load i64, ptr %28, align 8
  %30 = sub nsw i64 %29, %26
  store i64 %30, ptr %28, align 8
  %31 = load ptr, ptr %6, align 8
  %32 = getelementptr inbounds %struct.KINMemRec, ptr %31, i32 0, i32 60
  %33 = load i64, ptr %32, align 8
  %34 = load ptr, ptr %6, align 8
  %35 = getelementptr inbounds %struct.KINMemRec, ptr %34, i32 0, i32 62
  %36 = load i64, ptr %35, align 8
  %37 = sub nsw i64 %36, %33
  store i64 %37, ptr %35, align 8
  br label %38

38:                                               ; preds = %20, %15
  %39 = load ptr, ptr %6, align 8
  %40 = getelementptr inbounds %struct.KINMemRec, ptr %39, i32 0, i32 14
  store i32 0, ptr %40, align 4
  store i32 0, ptr %3, align 4
  br label %78

41:                                               ; preds = %11
  %42 = load ptr, ptr %5, align 8
  %43 = call double @N_VMaxNorm(ptr noundef %42)
  store double %43, ptr %7, align 8
  %44 = load double, ptr %7, align 8
  %45 = fcmp ogt double %44, 2.500000e+00
  br i1 %45, label %46, label %47

46:                                               ; preds = %41
  call void (ptr, i32, ptr, ptr, ptr, ...) @KINProcessError(ptr noundef null, i32 noundef -2, ptr noundef @.str, ptr noundef @.str.40, ptr noundef @.str.41)
  store i32 -2, ptr %3, align 4
  br label %78

47:                                               ; preds = %41
  %48 = load ptr, ptr %6, align 8
  %49 = getelementptr inbounds %struct.KINMemRec, ptr %48, i32 0, i32 14
  %50 = load i32, ptr %49, align 4
  %51 = icmp ne i32 %50, 0
  br i1 %51, label %73, label %52

52:                                               ; preds = %47
  %53 = load ptr, ptr %5, align 8
  %54 = call ptr @N_VClone(ptr noundef %53)
  %55 = load ptr, ptr %6, align 8
  %56 = getelementptr inbounds %struct.KINMemRec, ptr %55, i32 0, i32 45
  store ptr %54, ptr %56, align 8
  %57 = load ptr, ptr %6, align 8
  %58 = getelementptr inbounds %struct.KINMemRec, ptr %57, i32 0, i32 59
  %59 = load i64, ptr %58, align 8
  %60 = load ptr, ptr %6, align 8
  %61 = getelementptr inbounds %struct.KINMemRec, ptr %60, i32 0, i32 61
  %62 = load i64, ptr %61, align 8
  %63 = add nsw i64 %62, %59
  store i64 %63, ptr %61, align 8
  %64 = load ptr, ptr %6, align 8
  %65 = getelementptr inbounds %struct.KINMemRec, ptr %64, i32 0, i32 60
  %66 = load i64, ptr %65, align 8
  %67 = load ptr, ptr %6, align 8
  %68 = getelementptr inbounds %struct.KINMemRec, ptr %67, i32 0, i32 62
  %69 = load i64, ptr %68, align 8
  %70 = add nsw i64 %69, %66
  store i64 %70, ptr %68, align 8
  %71 = load ptr, ptr %6, align 8
  %72 = getelementptr inbounds %struct.KINMemRec, ptr %71, i32 0, i32 14
  store i32 1, ptr %72, align 4
  br label %73

73:                                               ; preds = %52, %47
  %74 = load ptr, ptr %5, align 8
  %75 = load ptr, ptr %6, align 8
  %76 = getelementptr inbounds %struct.KINMemRec, ptr %75, i32 0, i32 45
  %77 = load ptr, ptr %76, align 8
  call void @N_VScale(double noundef 1.000000e+00, ptr noundef %74, ptr noundef %77)
  store i32 0, ptr %3, align 4
  br label %78

78:                                               ; preds = %73, %46, %38, %10
  %79 = load i32, ptr %3, align 4
  ret i32 %79
}